; generated by Component: ARM Compiler 5.06 update 6 (build 750) Tool: ArmCC [4d3637]
; commandline ArmCC [--c99 --list --debug -c --asm --interleave -o.\objects\main.o --asm_dir=.\Listings\ --list_dir=.\Listings\ --depend=.\objects\main.d --cpu=Cortex-M4.fp --apcs=interwork --diag_suppress=9931 -I..\test_[SLAAC-RDNSS] -I..\..\Libraries\CMSIS\Device\ST\STM32F4xx\Include -I..\..\Libraries\CMSIS\Include -I..\..\Libraries\io6Library\Application\loopback -I..\..\Libraries\io6Library\Ethernet -I..\..\Libraries\io6Library\Ethernet\W6100 -I..\..\Libraries\io6Library\Internet\DHCP -I..\..\Libraries\io6Library\Internet\DNS -I..\..\Libraries\STM32F4xx_StdPeriph_Driver\inc -I..\..\Libraries\io6Library\Internet\DHCP6 -I.\RTE\_Target_1 -Ic:\Keil_v5\ARM\PACK\Keil\STM32F4xx_DFP\2.13.0\Drivers\CMSIS\Device\ST\STM32F4xx\Include -Ic:\Keil_v5\ARM\CMSIS\Include -D__UVISION_VERSION=525 -DSTM32F407xx -DSTM32F4XX -DUSE_STDPERIPH_DRIVER --omf_browse=.\objects\main.crf main.c]
                          THUMB

                          AREA ||.text||, CODE, READONLY, ALIGN=2

                          REQUIRE _printf_percent
                          REQUIRE _printf_widthprec
                          REQUIRE _printf_x
                          REQUIRE _printf_longlong_hex
                          REQUIRE _printf_d
                          REQUIRE _printf_f
                          REQUIRE _printf_int_dec
                          REQUIRE _printf_fp_dec
                          REQUIRE _printf_pre_padding
                          REQUIRE _printf_c
                          REQUIRE _printf_str
                          REQUIRE _printf_str
                          REQUIRE _printf_str
                          REQUIRE _printf_str
                          REQUIRE _printf_str
                          REQUIRE _printf_str
                          REQUIRE _printf_str
                          REQUIRE _printf_str
                          REQUIRE _printf_str
                          REQUIRE _printf_str
                          REQUIRE _printf_str
                  getAutoConfigAddress PROC
;;;288    
;;;289    void getAutoConfigAddress(void)
000000  b510              PUSH     {r4,lr}
;;;290    {
000002  b092              SUB      sp,sp,#0x48
;;;291    	uint8_t tmp[16];
;;;292    
;;;293    	getSHAR(tmp);
000004  2206              MOVS     r2,#6
000006  a90d              ADD      r1,sp,#0x34
000008  48eb              LDR      r0,|L1.952|
00000a  f7fffffe          BL       WIZCHIP_READ_BUF
;;;294    	printf("Mac address : %.2x:%.2x:%.2x:%.2x:%.2x:%.2x \r\n",tmp[0],tmp[1],tmp[2],tmp[3],tmp[4],tmp[5]);
00000e  f89d0037          LDRB     r0,[sp,#0x37]
000012  f89d2039          LDRB     r2,[sp,#0x39]
000016  f89d1038          LDRB     r1,[sp,#0x38]
00001a  e88d0007          STM      sp,{r0-r2}
00001e  f89d3036          LDRB     r3,[sp,#0x36]
000022  f89d2035          LDRB     r2,[sp,#0x35]
000026  f89d1034          LDRB     r1,[sp,#0x34]
00002a  a0e4              ADR      r0,|L1.956|
00002c  f7fffffe          BL       __2printf
;;;295    	getLLAR(tmp);
000030  2210              MOVS     r2,#0x10
000032  a90d              ADD      r1,sp,#0x34
000034  48ed              LDR      r0,|L1.1004|
000036  f7fffffe          BL       WIZCHIP_READ_BUF
;;;296    	printf("your Link Local IP is %.2x%.2x:%.2x%.2x:%.2x%.2x:%.2x%.2x:%.2x%.2x:%.2x%.2x:%.2x%.2x:%.2x%.2x \r\n", tmp[ 0], tmp[ 1], tmp[ 2], tmp[ 3],
00003a  f89d0040          LDRB     r0,[sp,#0x40]
00003e  ac09              ADD      r4,sp,#0x24
000040  f89d3043          LDRB     r3,[sp,#0x43]
000044  f89d2042          LDRB     r2,[sp,#0x42]
000048  f89d1041          LDRB     r1,[sp,#0x41]
00004c  e884000f          STM      r4,{r0-r3}
000050  f89d003c          LDRB     r0,[sp,#0x3c]
000054  ac05              ADD      r4,sp,#0x14
000056  f89d303f          LDRB     r3,[sp,#0x3f]
00005a  f89d203e          LDRB     r2,[sp,#0x3e]
00005e  f89d103d          LDRB     r1,[sp,#0x3d]
000062  e884000f          STM      r4,{r0-r3}
000066  f89d0038          LDRB     r0,[sp,#0x38]
00006a  ac01              ADD      r4,sp,#4
00006c  f89d303b          LDRB     r3,[sp,#0x3b]
000070  f89d203a          LDRB     r2,[sp,#0x3a]
000074  f89d1039          LDRB     r1,[sp,#0x39]
000078  e884000f          STM      r4,{r0-r3}
00007c  f89d0037          LDRB     r0,[sp,#0x37]
000080  9000              STR      r0,[sp,#0]
000082  f89d3036          LDRB     r3,[sp,#0x36]
000086  f89d2035          LDRB     r2,[sp,#0x35]
00008a  f89d1034          LDRB     r1,[sp,#0x34]
00008e  48d8              LDR      r0,|L1.1008|
000090  f7fffffe          BL       __2printf
;;;297    																												 tmp[ 4], tmp[ 5], tmp[ 6], tmp[ 7],
;;;298    																												 tmp[ 8], tmp[ 9], tmp[10], tmp[11],
;;;299    																												 tmp[12], tmp[13], tmp[14], tmp[15]);
;;;300    	getGUAR(tmp);
000094  2210              MOVS     r2,#0x10
000096  a90d              ADD      r1,sp,#0x34
000098  48d6              LDR      r0,|L1.1012|
00009a  f7fffffe          BL       WIZCHIP_READ_BUF
;;;301    	printf("your Global IP is %.2x%.2x:%.2x%.2x:%.2x%.2x:%.2x%.2x:%.2x%.2x:%.2x%.2x:%.2x%.2x:%.2x%.2x \r\n", tmp[ 0], tmp[ 1], tmp[ 2], tmp[ 3],
00009e  f89d0040          LDRB     r0,[sp,#0x40]
0000a2  ac09              ADD      r4,sp,#0x24
0000a4  f89d3043          LDRB     r3,[sp,#0x43]
0000a8  f89d2042          LDRB     r2,[sp,#0x42]
0000ac  f89d1041          LDRB     r1,[sp,#0x41]
0000b0  e884000f          STM      r4,{r0-r3}
0000b4  f89d003c          LDRB     r0,[sp,#0x3c]
0000b8  ac05              ADD      r4,sp,#0x14
0000ba  f89d303f          LDRB     r3,[sp,#0x3f]
0000be  f89d203e          LDRB     r2,[sp,#0x3e]
0000c2  f89d103d          LDRB     r1,[sp,#0x3d]
0000c6  e884000f          STM      r4,{r0-r3}
0000ca  f89d0038          LDRB     r0,[sp,#0x38]
0000ce  ac01              ADD      r4,sp,#4
0000d0  f89d303b          LDRB     r3,[sp,#0x3b]
0000d4  f89d203a          LDRB     r2,[sp,#0x3a]
0000d8  f89d1039          LDRB     r1,[sp,#0x39]
0000dc  e884000f          STM      r4,{r0-r3}
0000e0  f89d0037          LDRB     r0,[sp,#0x37]
0000e4  9000              STR      r0,[sp,#0]
0000e6  f89d3036          LDRB     r3,[sp,#0x36]
0000ea  f89d2035          LDRB     r2,[sp,#0x35]
0000ee  f89d1034          LDRB     r1,[sp,#0x34]
0000f2  48c1              LDR      r0,|L1.1016|
0000f4  f7fffffe          BL       __2printf
;;;302    																											 tmp[ 4], tmp[ 5], tmp[ 6], tmp[ 7],
;;;303    																											 tmp[ 8], tmp[ 9], tmp[10], tmp[11],
;;;304    																											 tmp[12], tmp[13], tmp[14], tmp[15]);
;;;305    	getSUB6R(tmp);
0000f8  2210              MOVS     r2,#0x10
0000fa  a90d              ADD      r1,sp,#0x34
0000fc  48bf              LDR      r0,|L1.1020|
0000fe  f7fffffe          BL       WIZCHIP_READ_BUF
;;;306    	printf("your Subnet Mask is %.2x%.2x:%.2x%.2x:%.2x%.2x:%.2x%.2x:%.2x%.2x:%.2x%.2x:%.2x%.2x:%.2x%.2x \r\n", tmp[ 0], tmp[ 1], tmp[ 2], tmp[ 3],
000102  f89d0040          LDRB     r0,[sp,#0x40]
000106  ac09              ADD      r4,sp,#0x24
000108  f89d3043          LDRB     r3,[sp,#0x43]
00010c  f89d2042          LDRB     r2,[sp,#0x42]
000110  f89d1041          LDRB     r1,[sp,#0x41]
000114  e884000f          STM      r4,{r0-r3}
000118  f89d003c          LDRB     r0,[sp,#0x3c]
00011c  ac05              ADD      r4,sp,#0x14
00011e  f89d303f          LDRB     r3,[sp,#0x3f]
000122  f89d203e          LDRB     r2,[sp,#0x3e]
000126  f89d103d          LDRB     r1,[sp,#0x3d]
00012a  e884000f          STM      r4,{r0-r3}
00012e  f89d0038          LDRB     r0,[sp,#0x38]
000132  ac01              ADD      r4,sp,#4
000134  f89d303b          LDRB     r3,[sp,#0x3b]
000138  f89d203a          LDRB     r2,[sp,#0x3a]
00013c  f89d1039          LDRB     r1,[sp,#0x39]
000140  e884000f          STM      r4,{r0-r3}
000144  f89d0037          LDRB     r0,[sp,#0x37]
000148  9000              STR      r0,[sp,#0]
00014a  f89d3036          LDRB     r3,[sp,#0x36]
00014e  f89d2035          LDRB     r2,[sp,#0x35]
000152  f89d1034          LDRB     r1,[sp,#0x34]
000156  48aa              LDR      r0,|L1.1024|
000158  f7fffffe          BL       __2printf
;;;307    																											 tmp[ 4], tmp[ 5], tmp[ 6], tmp[ 7],
;;;308    																											 tmp[ 8], tmp[ 9], tmp[10], tmp[11],
;;;309    																											 tmp[12], tmp[13], tmp[14], tmp[15]);
;;;310    	getGA6R(tmp);
00015c  2210              MOVS     r2,#0x10
00015e  a90d              ADD      r1,sp,#0x34
000160  48a8              LDR      r0,|L1.1028|
000162  f7fffffe          BL       WIZCHIP_READ_BUF
;;;311    	printf("your Gateway IP is %.2x%.2x:%.2x%.2x:%.2x%.2x:%.2x%.2x:%.2x%.2x:%.2x%.2x:%.2x%.2x:%.2x%.2x \r\n", tmp[ 0], tmp[ 1], tmp[ 2], tmp[ 3],
000166  f89d0040          LDRB     r0,[sp,#0x40]
00016a  ac09              ADD      r4,sp,#0x24
00016c  f89d3043          LDRB     r3,[sp,#0x43]
000170  f89d2042          LDRB     r2,[sp,#0x42]
000174  f89d1041          LDRB     r1,[sp,#0x41]
000178  e884000f          STM      r4,{r0-r3}
00017c  f89d003c          LDRB     r0,[sp,#0x3c]
000180  ac05              ADD      r4,sp,#0x14
000182  f89d303f          LDRB     r3,[sp,#0x3f]
000186  f89d203e          LDRB     r2,[sp,#0x3e]
00018a  f89d103d          LDRB     r1,[sp,#0x3d]
00018e  e884000f          STM      r4,{r0-r3}
000192  f89d0038          LDRB     r0,[sp,#0x38]
000196  ac01              ADD      r4,sp,#4
000198  f89d303b          LDRB     r3,[sp,#0x3b]
00019c  f89d203a          LDRB     r2,[sp,#0x3a]
0001a0  f89d1039          LDRB     r1,[sp,#0x39]
0001a4  e884000f          STM      r4,{r0-r3}
0001a8  f89d0037          LDRB     r0,[sp,#0x37]
0001ac  9000              STR      r0,[sp,#0]
0001ae  f89d3036          LDRB     r3,[sp,#0x36]
0001b2  f89d2035          LDRB     r2,[sp,#0x35]
0001b6  f89d1034          LDRB     r1,[sp,#0x34]
0001ba  4893              LDR      r0,|L1.1032|
0001bc  f7fffffe          BL       __2printf
;;;312    																											  tmp[ 4], tmp[ 5], tmp[ 6], tmp[ 7],
;;;313    																											  tmp[ 8], tmp[ 9], tmp[10], tmp[11],
;;;314    																											  tmp[12], tmp[13], tmp[14], tmp[15]);
;;;315    
;;;316    	printf("your DNSv6 is %.2x%.2x:%.2x%.2x:%.2x%.2x:%.2x%.2x:%.2x%.2x:%.2x%.2x:%.2x%.2x:%.2x%.2x \r\n", DNS6_Address[ 0], DNS6_Address[ 1], DNS6_Address[ 2], DNS6_Address[ 3],
0001c0  4892              LDR      r0,|L1.1036|
0001c2  f10d0c24          ADD      r12,sp,#0x24
0001c6  7b01              LDRB     r1,[r0,#0xc]  ; DNS6_Address
0001c8  7bc4              LDRB     r4,[r0,#0xf]  ; DNS6_Address
0001ca  7b83              LDRB     r3,[r0,#0xe]  ; DNS6_Address
0001cc  7b42              LDRB     r2,[r0,#0xd]  ; DNS6_Address
0001ce  e88c001e          STM      r12,{r1-r4}
0001d2  7a01              LDRB     r1,[r0,#8]  ; DNS6_Address
0001d4  f10d0c14          ADD      r12,sp,#0x14
0001d8  7ac4              LDRB     r4,[r0,#0xb]  ; DNS6_Address
0001da  7a83              LDRB     r3,[r0,#0xa]  ; DNS6_Address
0001dc  7a42              LDRB     r2,[r0,#9]  ; DNS6_Address
0001de  e88c001e          STM      r12,{r1-r4}
0001e2  7901              LDRB     r1,[r0,#4]  ; DNS6_Address
0001e4  f10d0c04          ADD      r12,sp,#4
0001e8  79c4              LDRB     r4,[r0,#7]  ; DNS6_Address
0001ea  7983              LDRB     r3,[r0,#6]  ; DNS6_Address
0001ec  7942              LDRB     r2,[r0,#5]  ; DNS6_Address
0001ee  e88c001e          STM      r12,{r1-r4}
0001f2  78c1              LDRB     r1,[r0,#3]  ; DNS6_Address
0001f4  9100              STR      r1,[sp,#0]
0001f6  7883              LDRB     r3,[r0,#2]  ; DNS6_Address
0001f8  7842              LDRB     r2,[r0,#1]  ; DNS6_Address
0001fa  7801              LDRB     r1,[r0,#0]  ; DNS6_Address
0001fc  4884              LDR      r0,|L1.1040|
0001fe  f7fffffe          BL       __2printf
;;;317    																										 DNS6_Address[ 4], DNS6_Address[ 5], DNS6_Address[ 6], DNS6_Address[ 7],
;;;318    																										 DNS6_Address[ 8], DNS6_Address[ 9], DNS6_Address[10], DNS6_Address[11],
;;;319    																										 DNS6_Address[12], DNS6_Address[13], DNS6_Address[14], DNS6_Address[15]);
;;;320    }
000202  b012              ADD      sp,sp,#0x48
000204  bd10              POP      {r4,pc}
                          ENDP

                  setMAC PROC
;;;278    
;;;279    void setMAC(uint8_t * WIZ_MAC)
000206  b530              PUSH     {r4,r5,lr}
;;;280    {
;;;281    	uint8_t tmp[6];
;;;282    	NETUNLOCK();
000208  4c82              LDR      r4,|L1.1044|
00020a  4605              MOV      r5,r0                 ;280
00020c  b085              SUB      sp,sp,#0x14           ;280
00020e  213a              MOVS     r1,#0x3a
000210  4620              MOV      r0,r4
000212  f7fffffe          BL       WIZCHIP_WRITE
;;;283    	setSHAR(WIZ_MAC);
000216  4629              MOV      r1,r5
000218  4d67              LDR      r5,|L1.952|
00021a  2206              MOVS     r2,#6
00021c  4628              MOV      r0,r5
00021e  f7fffffe          BL       WIZCHIP_WRITE_BUF
;;;284    	NETLOCK();
000222  21c5              MOVS     r1,#0xc5
000224  4620              MOV      r0,r4
000226  f7fffffe          BL       WIZCHIP_WRITE
;;;285    	getSHAR(tmp);
00022a  2206              MOVS     r2,#6
00022c  a903              ADD      r1,sp,#0xc
00022e  4628              MOV      r0,r5
000230  f7fffffe          BL       WIZCHIP_READ_BUF
;;;286    	printf("Mac address : %.2x:%.2x:%.2x:%.2x:%.2x:%.2x \r\n",tmp[0],tmp[1],tmp[2],tmp[3],tmp[4],tmp[5]);
000234  f89d000f          LDRB     r0,[sp,#0xf]
000238  f89d2011          LDRB     r2,[sp,#0x11]
00023c  f89d1010          LDRB     r1,[sp,#0x10]
000240  e88d0007          STM      sp,{r0-r2}
000244  f89d300e          LDRB     r3,[sp,#0xe]
000248  f89d200d          LDRB     r2,[sp,#0xd]
00024c  f89d100c          LDRB     r1,[sp,#0xc]
000250  a05a              ADR      r0,|L1.956|
000252  f7fffffe          BL       __2printf
;;;287    }
000256  b005              ADD      sp,sp,#0x14
000258  bd30              POP      {r4,r5,pc}
;;;288    
                          ENDP

                  Main_MENU PROC
;;;119    
;;;120    void Main_MENU(void)
00025a  e92d41f0          PUSH     {r4-r8,lr}
;;;121    {
00025e  b092              SUB      sp,sp,#0x48
;;;122        uint8_t num = 0;
000260  2400              MOVS     r4,#0
;;;123        uint8_t uart_menu;
;;;124        uint8_t tmp_array[16];
;;;125        char str[12];
;;;126        //uint8_t MACA[6];
;;;127        //char *s1 = malloc(sizeof(char)*12);
;;;128    
;;;129        printf("\r\n");
000262  a061              ADR      r0,|L1.1000|
000264  f7fffffe          BL       __2printf
;;;130    	printf("\r\n");
000268  a05f              ADR      r0,|L1.1000|
00026a  f7fffffe          BL       __2printf
;;;131        printf("////-----------------------------------------------////\r\n");
00026e  a06a              ADR      r0,|L1.1048|
000270  f7fffffe          BL       __2printf
;;;132        printf("////-----------------------------------------------////\r\n");
000274  a068              ADR      r0,|L1.1048|
000276  f7fffffe          BL       __2printf
;;;133        printf("////WIZnet CO.LTD W%d TEST FIRMWARE Version %.2f ////\r\n", chip, version);
00027a  ed9f0b76          VLDR     d0,|L1.1108|
00027e  f24171d4          MOV      r1,#0x17d4
000282  ec532b10          VMOV     r2,r3,d0
000286  a075              ADR      r0,|L1.1116|
000288  f7fffffe          BL       __2printf
;;;134        printf("////-----------------------------------------------////\r\n");
00028c  a062              ADR      r0,|L1.1048|
00028e  f7fffffe          BL       __2printf
;;;135        printf("////-----MENU--------------------------------------////\r\n");
000292  a080              ADR      r0,|L1.1172|
000294  f7fffffe          BL       __2printf
;;;136        printf("////-----------------------------------------------////\r\n");
000298  a05f              ADR      r0,|L1.1048|
00029a  f7fffffe          BL       __2printf
;;;137        printf("////--%2d : set MAC Address ------------------------////\r\n", num++);
00029e  4621              MOV      r1,r4
0002a0  2601              MOVS     r6,#1
0002a2  a08b              ADR      r0,|L1.1232|
0002a4  f7fffffe          BL       __2printf
;;;138        printf("////--%2d : Duplicate_Address_Detection ------------////\r\n", num++);
0002a8  2702              MOVS     r7,#2
0002aa  4631              MOV      r1,r6
0002ac  a097              ADR      r0,|L1.1292|
0002ae  f7fffffe          BL       __2printf
;;;139        printf("////--%2d : Address_Auto_Config_RA -----------------////\r\n", num++);
0002b2  2403              MOVS     r4,#3
0002b4  4639              MOV      r1,r7
0002b6  a0a4              ADR      r0,|L1.1352|
0002b8  f7fffffe          BL       __2printf
;;;140        printf("////--%2d : Address_Auto_Config_stateless_DHCP -----////\r\n", num++);
0002bc  2504              MOVS     r5,#4
0002be  4621              MOV      r1,r4
0002c0  a0b0              ADR      r0,|L1.1412|
0002c2  f7fffffe          BL       __2printf
;;;141    	printf("////--%2d : Address_Auto_Config_stateful_DHCP ------////\r\n", num++);
0002c6  f04f0805          MOV      r8,#5
0002ca  4644              MOV      r4,r8
0002cc  4629              MOV      r1,r5
0002ce  a0bc              ADR      r0,|L1.1472|
0002d0  f7fffffe          BL       __2printf
;;;142        printf("////--%2d : get My Address -------------------------////\r\n", num++);
0002d4  2506              MOVS     r5,#6
0002d6  4621              MOV      r1,r4
0002d8  a0c8              ADR      r0,|L1.1532|
0002da  f7fffffe          BL       __2printf
;;;143    	printf("////--%2d : loopback_tcps --------------------------////\r\n", num++);
0002de  2407              MOVS     r4,#7
0002e0  4629              MOV      r1,r5
0002e2  a0d5              ADR      r0,|L1.1592|
0002e4  f7fffffe          BL       __2printf
;;;144    	printf("////--%2d : loopback_udps --------------------------////\r\n", num++);
0002e8  2508              MOVS     r5,#8
0002ea  4621              MOV      r1,r4
0002ec  a0e1              ADR      r0,|L1.1652|
0002ee  f7fffffe          BL       __2printf
;;;145    	printf("////--%2d : loopback_tcpc --------------------------////\r\n", num++);
0002f2  4629              MOV      r1,r5
0002f4  a0ee              ADR      r0,|L1.1712|
0002f6  f7fffffe          BL       __2printf
;;;146        printf("////-----------------------------------------------////\r\n");
0002fa  a047              ADR      r0,|L1.1048|
0002fc  f7fffffe          BL       __2printf
;;;147        printf("////-----------------------------------------------////\r\n");
000300  a045              ADR      r0,|L1.1048|
000302  f7fffffe          BL       __2printf
;;;148        printf("\r\n");
000306  a038              ADR      r0,|L1.1000|
000308  f7fffffe          BL       __2printf
;;;149        printf("\r\n");
00030c  a036              ADR      r0,|L1.1000|
00030e  f7fffffe          BL       __2printf
;;;150        printf("INPUT COMMAND : ");
000312  a0f6              ADR      r0,|L1.1772|
000314  f7fffffe          BL       __2printf
;;;151        printf("\n");
000318  a04d              ADR      r0,|L1.1104|
00031a  f7fffffe          BL       __2printf
                  |L1.798|
;;;152    
;;;153        while(1)
;;;154        {
;;;155        	uart_menu = UartGetc();
00031e  f7fffffe          BL       UartGetc
000322  0001              MOVS     r1,r0
;;;156            if( uart_menu != '\0')
000324  d0fb              BEQ      |L1.798|
;;;157                break;
;;;158        }
;;;159    
;;;160        if ( uart_menu=='0' )
000326  2930              CMP      r1,#0x30
000328  d01a              BEQ      |L1.864|
;;;161        {
;;;162            printf("%c is Set MAC!!\r\n", uart_menu);
;;;163            //printf("What is your MAC Address : ");
;;;164            //UartGets(str,12);
;;;165            //printf("%s\n",str);/*
;;;166            //MACA[0] = (uint8_t)strtol(str, 2, 16);
;;;167            //MACA[1] = (uint8_t)strtol(str, 4, 16);
;;;168            //MACA[2] = (uint8_t)strtol(str, 6, 16);
;;;169            //MACA[3] = (uint8_t)strtol(str, 8, 16);
;;;170            //MACA[4] = (uint8_t)strtol(str, 10, 16);
;;;171            //MACA[5] = (uint8_t)strtol(str, 12, 16);
;;;172            //printf("%.2x%.2x%.2x%.2x%.2x%.2x\r\n",MACA[0],MACA[1],MACA[2],MACA[3],MACA[4],MACA[5]);*/
;;;173    		setMAC(WIZ_MAC);
;;;174    	}
;;;175    
;;;176        else if ( uart_menu=='1' )
00032a  2931              CMP      r1,#0x31
00032c  d020              BEQ      |L1.880|
;;;177        {
;;;178            printf("%c is Duplicate_Address_Detection TEST!!\r\n", uart_menu);
;;;179            Duplicate_Address_Detection(WIZ_MAC);
;;;180        }
;;;181    
;;;182        else if( uart_menu=='2' )
;;;183        {
;;;184            printf("%c is Address_Auto_Config_RA TEST!!\r\n", uart_menu);
;;;185            MO_flag = Address_Auto_Config_RA(7, data_buf, sizeof(data_buf));
00032e  4cf4              LDR      r4,|L1.1792|
000330  2932              CMP      r1,#0x32              ;182
000332  d025              BEQ      |L1.896|
;;;186    		if(MO_flag == SLAAC_DHCP6)
;;;187    		{
;;;188    			printf("you need get DNS address. menu is number 3 stateless DHCPv6 \r\n");
;;;189    		}
;;;190    		else if(MO_flag == SFAAC_DHCP6)
;;;191    		{
;;;192    			printf("you need get IP,DNS address. menu is number 4 stateful DHCPv6 \r\n");
;;;193    		}
;;;194    		else
;;;195    		{
;;;196    			getGUAR(tmp_array);
;;;197    			printf("your Global IP is %x%x:%x%x:%x%x:%x%x:%x%x:%x%x:%x%x:%x%x \r\n", tmp_array[ 0], tmp_array[ 1], tmp_array[ 2], tmp_array[ 3],
;;;198    																					 tmp_array[ 4], tmp_array[ 5], tmp_array[ 6], tmp_array[ 7],
;;;199    																				     tmp_array[ 8], tmp_array[ 9], tmp_array[10], tmp_array[11],
;;;200    																					 tmp_array[12], tmp_array[13], tmp_array[14], tmp_array[15]);
;;;201    		}
;;;202        }
;;;203        else if ( uart_menu=='3' )
000334  2933              CMP      r1,#0x33
000336  d035              BEQ      |L1.932|
;;;204        {
;;;205            printf("%c is Address_Auto_Config_Stateless_DHCP TEST!!\r\n", uart_menu);
;;;206            Address_Auto_Config_SLDHCP(7, data_buf);
;;;207        }
;;;208    
;;;209        else if ( uart_menu=='4' )
000338  2934              CMP      r1,#0x34
00033a  d034              BEQ      |L1.934|
;;;210        {
;;;211            printf("%c is Address_Auto_Config_Stateful_DHCP TEST!!\r\n", uart_menu);
;;;212            Address_Auto_Config_SFDHCP(7, data_buf);
;;;213        }
;;;214    
;;;215    	else if ( uart_menu=='5' )
00033c  2935              CMP      r1,#0x35
00033e  d033              BEQ      |L1.936|
;;;216        {
;;;217            printf("%c is check your address setting TEST!!\r\n", uart_menu);
;;;218            getAutoConfigAddress();
;;;219        }
;;;220    
;;;221        else if ( uart_menu=='6' )
;;;222        {
;;;223            printf("%c is loopback_tcp server TEST!!\r\n", uart_menu);
;;;224    		while(1)
;;;225            {
;;;226    			loopback_tcps(0, 5000, data_buf, AS_IPV6);
000340  f2413588          MOV      r5,#0x1388
000344  2936              CMP      r1,#0x36              ;221
000346  d030              BEQ      |L1.938|
;;;227    		}
;;;228        }
;;;229    
;;;230        else if ( uart_menu=='7' )
000348  2937              CMP      r1,#0x37
00034a  d02f              BEQ      |L1.940|
;;;231    	{
;;;232    		printf("%c is loopback_udp server TEST!!\r\n", uart_menu);
;;;233    		while(1)
;;;234    		{
;;;235    			loopback_udps(0, data_buf, 5000, AS_IPV6);
;;;236    		}
;;;237    	}
;;;238    	
;;;239    	else if ( uart_menu=='8' )
00034c  2938              CMP      r1,#0x38
00034e  d02e              BEQ      |L1.942|
;;;240    	{
;;;241    		printf("%c is loopback_tcp client TEST!!\r\n", uart_menu);
;;;242    		while(1)
;;;243    		{
;;;244    			loopback_tcpc(0, data_buf, dest_GUA, dest_Port, AS_IPV6);
;;;245    		}
;;;246    	}
;;;247    	
;;;248    	else if ( uart_menu=='9' )
000350  2939              CMP      r1,#0x39
000352  d02d              BEQ      |L1.944|
;;;249    	{
;;;250    		wiz_ARP arp;
;;;251    		printf("%c is ARP TEST!!\r\n", uart_menu);
;;;252    		arp.destinfo.len = 16;
;;;253    		arp.destinfo.ip[0] = 0x20;
;;;254    		arp.destinfo.ip[1] = 0x01;
;;;255    		arp.destinfo.ip[2] = 0x02;
;;;256    		arp.destinfo.ip[3] = 0xb8;
;;;257    		arp.destinfo.ip[4] = 0x00;
;;;258    		arp.destinfo.ip[5] = 0x10;
;;;259    		arp.destinfo.ip[6] = 0xff;
;;;260    		arp.destinfo.ip[7] = 0xfe;
;;;261    		arp.destinfo.ip[8] = 0x31;
;;;262    		arp.destinfo.ip[9] = 0x71;
;;;263    		arp.destinfo.ip[10] = 0x98;
;;;264    		arp.destinfo.ip[11] = 0x05;		
;;;265    		arp.destinfo.ip[12] = 0x70;
;;;266    		arp.destinfo.ip[13] = 0x24;
;;;267    		arp.destinfo.ip[14] = 0x4b;
;;;268    		arp.destinfo.ip[15] = 0xb1;
;;;269    		wizchip_arp(&arp);
;;;270    	}
;;;271    
;;;272        else
;;;273        {
;;;274            printf("%c is COMMAND ERROR!!\r\n", uart_menu);
000354  a0eb              ADR      r0,|L1.1796|
000356  f7fffffe          BL       __2printf
                  |L1.858|
;;;275        }
;;;276    
;;;277    }
00035a  b012              ADD      sp,sp,#0x48
00035c  e8bd81f0          POP      {r4-r8,pc}
                  |L1.864|
000360  a0ee              ADR      r0,|L1.1820|
000362  f7fffffe          BL       __2printf
000366  48e6              LDR      r0,|L1.1792|
000368  1d00              ADDS     r0,r0,#4              ;173
00036a  f7fffffe          BL       setMAC
00036e  e7f4              B        |L1.858|
                  |L1.880|
000370  a0ef              ADR      r0,|L1.1840|
000372  f7fffffe          BL       __2printf
000376  48e2              LDR      r0,|L1.1792|
000378  1d00              ADDS     r0,r0,#4              ;179
00037a  f7fffffe          BL       Duplicate_Address_Detection
00037e  e7ec              B        |L1.858|
                  |L1.896|
000380  a0f6              ADR      r0,|L1.1884|
000382  f7fffffe          BL       __2printf
000386  f44f6200          MOV      r2,#0x800             ;185
00038a  49fe              LDR      r1,|L1.1924|
00038c  2007              MOVS     r0,#7                 ;185
00038e  f7fffffe          BL       Address_Auto_Config_RA
000392  7020              STRB     r0,[r4,#0]            ;185
000394  2801              CMP      r0,#1                 ;186
000396  d00c              BEQ      |L1.946|
000398  2803              CMP      r0,#3                 ;190
00039a  d00b              BEQ      |L1.948|
00039c  2210              MOVS     r2,#0x10              ;196
00039e  a90d              ADD      r1,sp,#0x34           ;196
0003a0  4814              LDR      r0,|L1.1012|
0003a2  e1f1              B        |L1.1928|
                  |L1.932|
0003a4  e226              B        |L1.2036|
                  |L1.934|
0003a6  e22d              B        |L1.2052|
                  |L1.936|
0003a8  e234              B        |L1.2068|
                  |L1.938|
0003aa  e239              B        |L1.2080|
                  |L1.940|
0003ac  e242              B        |L1.2100|
                  |L1.942|
0003ae  e24b              B        |L1.2120|
                  |L1.944|
0003b0  e256              B        |L1.2144|
                  |L1.946|
0003b2  e219              B        |L1.2024|
                  |L1.948|
0003b4  e21a              B        |L1.2028|
0003b6  0000              DCW      0x0000
                  |L1.952|
                          DCD      0x60412000
                  |L1.956|
0003bc  4d616320          DCB      "Mac address : %.2x:%.2x:%.2x:%.2x:%.2x:%.2x "
0003c0  61646472
0003c4  65737320
0003c8  3a20252e
0003cc  32783a25
0003d0  2e32783a
0003d4  252e3278
0003d8  3a252e32
0003dc  783a252e
0003e0  32783a25
0003e4  2e327820
                  |L1.1000|
0003e8  0d0a00            DCB      "\r\n",0
0003eb  00                DCB      0
                  |L1.1004|
                          DCD      0x60414000
                  |L1.1008|
                          DCD      ||.conststring||
                  |L1.1012|
                          DCD      0x60415000
                  |L1.1016|
                          DCD      ||.conststring||+0x64
                  |L1.1020|
                          DCD      0x60416000
                  |L1.1024|
                          DCD      ||.conststring||+0xc4
                  |L1.1028|
                          DCD      0x60417000
                  |L1.1032|
                          DCD      ||.conststring||+0x124
                  |L1.1036|
                          DCD      DNS6_Address
                  |L1.1040|
                          DCD      ||.conststring||+0x184
                  |L1.1044|
                          DCD      0x6041f500
                  |L1.1048|
000418  2f2f2f2f          DCB      "////-----------------------------------------------////"
00041c  2d2d2d2d
000420  2d2d2d2d
000424  2d2d2d2d
000428  2d2d2d2d
00042c  2d2d2d2d
000430  2d2d2d2d
000434  2d2d2d2d
000438  2d2d2d2d
00043c  2d2d2d2d
000440  2d2d2d2d
000444  2d2d2d2d
000448  2d2d2d2f
00044c  2f2f2f  
00044f  0d                DCB      "\r"
                  |L1.1104|
000450  0a00              DCB      "\n",0
000452  00                DCB      0
000453  00                DCB      0
                  |L1.1108|
000454  9999999a          DCFD     0x3fb999999999999a ; 0.10000000000000001
000458  3fb99999
                  |L1.1116|
00045c  2f2f2f2f          DCB      "////WIZnet CO.LTD W%d TEST FIRMWARE Version %.2f ////\r"
000460  57495a6e
000464  65742043
000468  4f2e4c54
00046c  44205725
000470  64205445
000474  53542046
000478  49524d57
00047c  41524520
000480  56657273
000484  696f6e20
000488  252e3266
00048c  202f2f2f
000490  2f0d    
000492  0a00              DCB      "\n",0
                  |L1.1172|
000494  2f2f2f2f          DCB      "////-----MENU--------------------------------------////"
000498  2d2d2d2d
00049c  2d4d454e
0004a0  552d2d2d
0004a4  2d2d2d2d
0004a8  2d2d2d2d
0004ac  2d2d2d2d
0004b0  2d2d2d2d
0004b4  2d2d2d2d
0004b8  2d2d2d2d
0004bc  2d2d2d2d
0004c0  2d2d2d2d
0004c4  2d2d2d2f
0004c8  2f2f2f  
0004cb  0d0a00            DCB      "\r\n",0
0004ce  00                DCB      0
0004cf  00                DCB      0
                  |L1.1232|
0004d0  2f2f2f2f          DCB      "////--%2d : set MAC Address ------------------------///"
0004d4  2d2d2532
0004d8  64203a20
0004dc  73657420
0004e0  4d414320
0004e4  41646472
0004e8  65737320
0004ec  2d2d2d2d
0004f0  2d2d2d2d
0004f4  2d2d2d2d
0004f8  2d2d2d2d
0004fc  2d2d2d2d
000500  2d2d2d2d
000504  2f2f2f  
000507  2f0d0a00          DCB      "/\r\n",0
00050b  00                DCB      0
                  |L1.1292|
00050c  2f2f2f2f          DCB      "////--%2d : Duplicate_Address_Detection ------------///"
000510  2d2d2532
000514  64203a20
000518  4475706c
00051c  69636174
000520  655f4164
000524  64726573
000528  735f4465
00052c  74656374
000530  696f6e20
000534  2d2d2d2d
000538  2d2d2d2d
00053c  2d2d2d2d
000540  2f2f2f  
000543  2f0d0a00          DCB      "/\r\n",0
000547  00                DCB      0
                  |L1.1352|
000548  2f2f2f2f          DCB      "////--%2d : Address_Auto_Config_RA -----------------///"
00054c  2d2d2532
000550  64203a20
000554  41646472
000558  6573735f
00055c  4175746f
000560  5f436f6e
000564  6669675f
000568  5241202d
00056c  2d2d2d2d
000570  2d2d2d2d
000574  2d2d2d2d
000578  2d2d2d2d
00057c  2f2f2f  
00057f  2f0d0a00          DCB      "/\r\n",0
000583  00                DCB      0
                  |L1.1412|
000584  2f2f2f2f          DCB      "////--%2d : Address_Auto_Config_stateless_DHCP -----///"
000588  2d2d2532
00058c  64203a20
000590  41646472
000594  6573735f
000598  4175746f
00059c  5f436f6e
0005a0  6669675f
0005a4  73746174
0005a8  656c6573
0005ac  735f4448
0005b0  4350202d
0005b4  2d2d2d2d
0005b8  2f2f2f  
0005bb  2f0d0a00          DCB      "/\r\n",0
0005bf  00                DCB      0
                  |L1.1472|
0005c0  2f2f2f2f          DCB      "////--%2d : Address_Auto_Config_stateful_DHCP ------///"
0005c4  2d2d2532
0005c8  64203a20
0005cc  41646472
0005d0  6573735f
0005d4  4175746f
0005d8  5f436f6e
0005dc  6669675f
0005e0  73746174
0005e4  6566756c
0005e8  5f444843
0005ec  50202d2d
0005f0  2d2d2d2d
0005f4  2f2f2f  
0005f7  2f0d0a00          DCB      "/\r\n",0
0005fb  00                DCB      0
                  |L1.1532|
0005fc  2f2f2f2f          DCB      "////--%2d : get My Address -------------------------///"
000600  2d2d2532
000604  64203a20
000608  67657420
00060c  4d792041
000610  64647265
000614  7373202d
000618  2d2d2d2d
00061c  2d2d2d2d
000620  2d2d2d2d
000624  2d2d2d2d
000628  2d2d2d2d
00062c  2d2d2d2d
000630  2f2f2f  
000633  2f0d0a00          DCB      "/\r\n",0
000637  00                DCB      0
                  |L1.1592|
000638  2f2f2f2f          DCB      "////--%2d : loopback_tcps --------------------------///"
00063c  2d2d2532
000640  64203a20
000644  6c6f6f70
000648  6261636b
00064c  5f746370
000650  73202d2d
000654  2d2d2d2d
000658  2d2d2d2d
00065c  2d2d2d2d
000660  2d2d2d2d
000664  2d2d2d2d
000668  2d2d2d2d
00066c  2f2f2f  
00066f  2f0d0a00          DCB      "/\r\n",0
000673  00                DCB      0
                  |L1.1652|
000674  2f2f2f2f          DCB      "////--%2d : loopback_udps --------------------------///"
000678  2d2d2532
00067c  64203a20
000680  6c6f6f70
000684  6261636b
000688  5f756470
00068c  73202d2d
000690  2d2d2d2d
000694  2d2d2d2d
000698  2d2d2d2d
00069c  2d2d2d2d
0006a0  2d2d2d2d
0006a4  2d2d2d2d
0006a8  2f2f2f  
0006ab  2f0d0a00          DCB      "/\r\n",0
0006af  00                DCB      0
                  |L1.1712|
0006b0  2f2f2f2f          DCB      "////--%2d : loopback_tcpc --------------------------///"
0006b4  2d2d2532
0006b8  64203a20
0006bc  6c6f6f70
0006c0  6261636b
0006c4  5f746370
0006c8  63202d2d
0006cc  2d2d2d2d
0006d0  2d2d2d2d
0006d4  2d2d2d2d
0006d8  2d2d2d2d
0006dc  2d2d2d2d
0006e0  2d2d2d2d
0006e4  2f2f2f  
0006e7  2f0d0a00          DCB      "/\r\n",0
0006eb  00                DCB      0
                  |L1.1772|
0006ec  494e5055          DCB      "INPUT COMMAND : ",0
0006f0  5420434f
0006f4  4d4d414e
0006f8  44203a20
0006fc  00      
0006fd  00                DCB      0
0006fe  00                DCB      0
0006ff  00                DCB      0
                  |L1.1792|
                          DCD      ||area_number.12||
                  |L1.1796|
000704  25632069          DCB      "%c is COMMAND ERROR!!\r\n",0
000708  7320434f
00070c  4d4d414e
000710  44204552
000714  524f5221
000718  210d0a00
                  |L1.1820|
00071c  25632069          DCB      "%c is Set MAC!!\r\n",0
000720  73205365
000724  74204d41
000728  4321210d
00072c  0a00    
00072e  00                DCB      0
00072f  00                DCB      0
                  |L1.1840|
000730  25632069          DCB      "%c is Duplicate_Address_Detection TEST!!\r\n",0
000734  73204475
000738  706c6963
00073c  6174655f
000740  41646472
000744  6573735f
000748  44657465
00074c  6374696f
000750  6e205445
000754  53542121
000758  0d0a00  
00075b  00                DCB      0
                  |L1.1884|
00075c  25632069          DCB      "%c is Address_Auto_Config_RA TEST!!\r\n",0
000760  73204164
000764  64726573
000768  735f4175
00076c  746f5f43
000770  6f6e6669
000774  675f5241
000778  20544553
00077c  5421210d
000780  0a00    
000782  00                DCB      0
000783  00                DCB      0
                  |L1.1924|
                          DCD      ||area_number.5||
                  |L1.1928|
000788  f7fffffe          BL       WIZCHIP_READ_BUF
00078c  f89d0040          LDRB     r0,[sp,#0x40]         ;197
000790  ac09              ADD      r4,sp,#0x24           ;197
000792  f89d3043          LDRB     r3,[sp,#0x43]         ;197
000796  f89d2042          LDRB     r2,[sp,#0x42]         ;197
00079a  f89d1041          LDRB     r1,[sp,#0x41]         ;197
00079e  e884000f          STM      r4,{r0-r3}            ;197
0007a2  f89d003c          LDRB     r0,[sp,#0x3c]         ;197
0007a6  ac05              ADD      r4,sp,#0x14           ;197
0007a8  f89d303f          LDRB     r3,[sp,#0x3f]         ;197
0007ac  f89d203e          LDRB     r2,[sp,#0x3e]         ;197
0007b0  f89d103d          LDRB     r1,[sp,#0x3d]         ;197
0007b4  e884000f          STM      r4,{r0-r3}            ;197
0007b8  f89d0038          LDRB     r0,[sp,#0x38]         ;197
0007bc  ac01              ADD      r4,sp,#4              ;197
0007be  f89d303b          LDRB     r3,[sp,#0x3b]         ;197
0007c2  f89d203a          LDRB     r2,[sp,#0x3a]         ;197
0007c6  f89d1039          LDRB     r1,[sp,#0x39]         ;197
0007ca  e884000f          STM      r4,{r0-r3}            ;197
0007ce  f89d0037          LDRB     r0,[sp,#0x37]         ;197
0007d2  9000              STR      r0,[sp,#0]            ;197
0007d4  f89d3036          LDRB     r3,[sp,#0x36]         ;197
0007d8  f89d2035          LDRB     r2,[sp,#0x35]         ;197
0007dc  f89d1034          LDRB     r1,[sp,#0x34]         ;197
0007e0  a050              ADR      r0,|L1.2340|
0007e2  f7fffffe          BL       __2printf
0007e6  e5b8              B        |L1.858|
                  |L1.2024|
0007e8  a05e              ADR      r0,|L1.2404|
0007ea  e000              B        |L1.2030|
                  |L1.2028|
0007ec  486d              LDR      r0,|L1.2468|
                  |L1.2030|
0007ee  f7fffffe          BL       __2printf
0007f2  e5b2              B        |L1.858|
                  |L1.2036|
0007f4  a06c              ADR      r0,|L1.2472|
0007f6  f7fffffe          BL       __2printf
0007fa  4978              LDR      r1,|L1.2524|
0007fc  2007              MOVS     r0,#7                 ;206
0007fe  f7fffffe          BL       Address_Auto_Config_SLDHCP
000802  e5aa              B        |L1.858|
                  |L1.2052|
000804  a076              ADR      r0,|L1.2528|
000806  f7fffffe          BL       __2printf
00080a  4974              LDR      r1,|L1.2524|
00080c  2007              MOVS     r0,#7                 ;212
00080e  f7fffffe          BL       Address_Auto_Config_SFDHCP
000812  e5a2              B        |L1.858|
                  |L1.2068|
000814  a07f              ADR      r0,|L1.2580|
000816  f7fffffe          BL       __2printf
00081a  f7fffffe          BL       getAutoConfigAddress
00081e  e59c              B        |L1.858|
                  |L1.2080|
000820  a087              ADR      r0,|L1.2624|
000822  f7fffffe          BL       __2printf
                  |L1.2086|
000826  2317              MOVS     r3,#0x17              ;226
000828  4a6c              LDR      r2,|L1.2524|
00082a  4629              MOV      r1,r5                 ;226
00082c  2000              MOVS     r0,#0                 ;226
00082e  f7fffffe          BL       loopback_tcps
000832  e7f8              B        |L1.2086|
                  |L1.2100|
000834  a08b              ADR      r0,|L1.2660|
000836  f7fffffe          BL       __2printf
                  |L1.2106|
00083a  2317              MOVS     r3,#0x17              ;235
00083c  462a              MOV      r2,r5                 ;235
00083e  4967              LDR      r1,|L1.2524|
000840  2000              MOVS     r0,#0                 ;235
000842  f7fffffe          BL       loopback_udps
000846  e7f8              B        |L1.2106|
                  |L1.2120|
000848  a08f              ADR      r0,|L1.2696|
00084a  f7fffffe          BL       __2printf
00084e  2517              MOVS     r5,#0x17              ;226
                  |L1.2128|
000850  9500              STR      r5,[sp,#0]            ;244
000852  8863              LDRH     r3,[r4,#2]            ;244  ; dest_Port
000854  4a95              LDR      r2,|L1.2732|
000856  4961              LDR      r1,|L1.2524|
000858  2000              MOVS     r0,#0                 ;244
00085a  f7fffffe          BL       loopback_tcpc
00085e  e7f7              B        |L1.2128|
                  |L1.2144|
000860  a093              ADR      r0,|L1.2736|
000862  f7fffffe          BL       __2printf
000866  2120              MOVS     r1,#0x20              ;253
000868  f88d1000          STRB     r1,[sp,#0]            ;253
00086c  f88d6001          STRB     r6,[sp,#1]            ;254
000870  f88d7002          STRB     r7,[sp,#2]            ;255
000874  21b8              MOVS     r1,#0xb8              ;256
000876  f88d1003          STRB     r1,[sp,#3]            ;256
00087a  2010              MOVS     r0,#0x10              ;252
00087c  2100              MOVS     r1,#0                 ;257
00087e  f88d1004          STRB     r1,[sp,#4]            ;257
000882  f88d0010          STRB     r0,[sp,#0x10]         ;252
000886  f88d0005          STRB     r0,[sp,#5]            ;258
00088a  20ff              MOVS     r0,#0xff              ;259
00088c  f88d0006          STRB     r0,[sp,#6]            ;259
000890  20fe              MOVS     r0,#0xfe              ;260
000892  f88d0007          STRB     r0,[sp,#7]            ;260
000896  2031              MOVS     r0,#0x31              ;261
000898  f88d0008          STRB     r0,[sp,#8]            ;261
00089c  2071              MOVS     r0,#0x71              ;262
00089e  f88d0009          STRB     r0,[sp,#9]            ;262
0008a2  2098              MOVS     r0,#0x98              ;263
0008a4  f88d000a          STRB     r0,[sp,#0xa]          ;263
0008a8  2070              MOVS     r0,#0x70              ;265
0008aa  f88d000c          STRB     r0,[sp,#0xc]          ;265
0008ae  2024              MOVS     r0,#0x24              ;266
0008b0  f88d000d          STRB     r0,[sp,#0xd]          ;266
0008b4  204b              MOVS     r0,#0x4b              ;267
0008b6  f88d000e          STRB     r0,[sp,#0xe]          ;267
0008ba  20b1              MOVS     r0,#0xb1              ;268
0008bc  f88d000f          STRB     r0,[sp,#0xf]          ;268
0008c0  f88d800b          STRB     r8,[sp,#0xb]          ;264
0008c4  4668              MOV      r0,sp                 ;269
0008c6  f7fffffe          BL       wizchip_arp
0008ca  e546              B        |L1.858|
;;;278    
                          ENDP

                  main PROC
;;;64     	
;;;65     int main(void)
0008cc  f7fffffe          BL       GPIO_Configuration
;;;66     {
;;;67     	GPIO_Configuration();
;;;68     	USART_Configuration();
0008d0  f7fffffe          BL       USART_Configuration
;;;69     	NVIC_Configuration();
0008d4  f7fffffe          BL       NVIC_Configuration
;;;70     	SetSysTick_config(1000);
0008d8  f44f707a          MOV      r0,#0x3e8
0008dc  f7fffffe          BL       SetSysTick_config
;;;71     
;;;72     	#if _WIZCHIP_IO_MODE_ & _WIZCHIP_IO_MODE_SPI_
;;;73     	reg_wizchip_spi_cbfunc(spiReadByte, spiWriteByte,spiReadBurst,spiWriteBurst);
;;;74     	reg_wizchip_cs_cbfunc(csEnable,csDisable);
;;;75     	reg_wizchip_cris_cbfunc(EnterCris, ExitCris);
;;;76     	#else
;;;77     	//reg_wizchip_cs_cbfunc(csEnable,csDisable);
;;;78     	reg_wizchip_cris_cbfunc(EnterCris, ExitCris);
0008e0  4978              LDR      r1,|L1.2756|
0008e2  4879              LDR      r0,|L1.2760|
0008e4  f7fffffe          BL       reg_wizchip_cris_cbfunc
;;;79     	#endif
;;;80     
;;;81     	#if _WIZCHIP_IO_MODE_ & _WIZCHIP_IO_MODE_SPI_
;;;82     	Set_SPI_Mode();
;;;83     	#else
;;;84     	Set_Indirect_Mode();
0008e8  f7fffffe          BL       Set_Indirect_Mode
;;;85     	#endif
;;;86     	Interface_init();
0008ec  f7fffffe          BL       Interface_init
;;;87     	delay_ms(60);
0008f0  203c              MOVS     r0,#0x3c
0008f2  f7fffffe          BL       delay_ms
;;;88     
;;;89     	sysinit( W6100_AdrSet);
0008f6  486d              LDR      r0,|L1.2732|
0008f8  3010              ADDS     r0,r0,#0x10
0008fa  f7fffffe          BL       sysinit
                  |L1.2302|
;;;90     	
;;;91     	while(!wizphy_getphylink());
0008fe  f7fffffe          BL       wizphy_getphylink
000902  2800              CMP      r0,#0
000904  d0fb              BEQ      |L1.2302|
;;;92     	//setMAC(WIZ_MAC);//Duplicate_Address_Detection(WIZ_MAC);MO_flag = Address_Auto_Config_RA(7);
;;;93     //	setMAC();
;;;94     	//Duplicate_Address_Detection(WIZ_MAC);
;;;95     	//MO_flag = Address_Auto_Config_RA(7);
;;;96     	//printf("MO_flag : %x \r\n", MO_flag);
;;;97     //		
;;;98     //	Address_Auto_Config_Run(7, MO_flag);
;;;99     	
;;;100    	/*	
;;;101        //Set RTR and RCR register
;;;102        setRTR(2000);
;;;103        setRCR(5);
;;;104    
;;;105    	while(!wizphy_getphylink()); // wait link
;;;106    
;;;107    	DADNS();
;;;108    	AUTORS();
;;;109    	//Set_network();*/
;;;110    	
;;;111    	printf("VER : %x \r\n",getVER());
000906  4871              LDR      r0,|L1.2764|
000908  f7fffffe          BL       WIZCHIP_READ
00090c  4604              MOV      r4,r0
00090e  4870              LDR      r0,|L1.2768|
000910  f7fffffe          BL       WIZCHIP_READ
000914  eb042100          ADD      r1,r4,r0,LSL #8
000918  a06e              ADR      r0,|L1.2772|
00091a  f7fffffe          BL       __2printf
                  |L1.2334|
;;;112    	
;;;113    	while(1)
;;;114    	{
;;;115    		Main_MENU();
00091e  f7fffffe          BL       Main_MENU
000922  e7fc              B        |L1.2334|
;;;116    		//loopback_tcps(0, 5000, data_buf, AS_IPV6);
;;;117    	}
;;;118    }
;;;119    
                          ENDP

                  |L1.2340|
000924  796f7572          DCB      "your Global IP is %x%x:%x%x:%x%x:%x%x:%x%x:%x%x:%x%x:%x"
000928  20476c6f
00092c  62616c20
000930  49502069
000934  73202578
000938  25783a25
00093c  7825783a
000940  25782578
000944  3a257825
000948  783a2578
00094c  25783a25
000950  7825783a
000954  25782578
000958  3a2578  
00095b  2578200d          DCB      "%x \r\n",0
00095f  0a00    
000961  00                DCB      0
000962  00                DCB      0
000963  00                DCB      0
                  |L1.2404|
000964  796f7520          DCB      "you need get DNS address. menu is number 3 stateless DH"
000968  6e656564
00096c  20676574
000970  20444e53
000974  20616464
000978  72657373
00097c  2e206d65
000980  6e752069
000984  73206e75
000988  6d626572
00098c  20332073
000990  74617465
000994  6c657373
000998  204448  
00099b  43507636          DCB      "CPv6 \r\n",0
00099f  200d0a00
0009a3  00                DCB      0
                  |L1.2468|
                          DCD      ||.conststring||+0x1e0
                  |L1.2472|
0009a8  25632069          DCB      "%c is Address_Auto_Config_Stateless_DHCP TEST!!\r\n",0
0009ac  73204164
0009b0  64726573
0009b4  735f4175
0009b8  746f5f43
0009bc  6f6e6669
0009c0  675f5374
0009c4  6174656c
0009c8  6573735f
0009cc  44484350
0009d0  20544553
0009d4  5421210d
0009d8  0a00    
0009da  00                DCB      0
0009db  00                DCB      0
                  |L1.2524|
                          DCD      ||area_number.5||
                  |L1.2528|
0009e0  25632069          DCB      "%c is Address_Auto_Config_Stateful_DHCP TEST!!\r\n",0
0009e4  73204164
0009e8  64726573
0009ec  735f4175
0009f0  746f5f43
0009f4  6f6e6669
0009f8  675f5374
0009fc  61746566
000a00  756c5f44
000a04  48435020
000a08  54455354
000a0c  21210d0a
000a10  00      
000a11  00                DCB      0
000a12  00                DCB      0
000a13  00                DCB      0
                  |L1.2580|
000a14  25632069          DCB      "%c is check your address setting TEST!!\r\n",0
000a18  73206368
000a1c  65636b20
000a20  796f7572
000a24  20616464
000a28  72657373
000a2c  20736574
000a30  74696e67
000a34  20544553
000a38  5421210d
000a3c  0a00    
000a3e  00                DCB      0
000a3f  00                DCB      0
                  |L1.2624|
000a40  25632069          DCB      "%c is loopback_tcp server TEST!!\r\n",0
000a44  73206c6f
000a48  6f706261
000a4c  636b5f74
000a50  63702073
000a54  65727665
000a58  72205445
000a5c  53542121
000a60  0d0a00  
000a63  00                DCB      0
                  |L1.2660|
000a64  25632069          DCB      "%c is loopback_udp server TEST!!\r\n",0
000a68  73206c6f
000a6c  6f706261
000a70  636b5f75
000a74  64702073
000a78  65727665
000a7c  72205445
000a80  53542121
000a84  0d0a00  
000a87  00                DCB      0
                  |L1.2696|
000a88  25632069          DCB      "%c is loopback_tcp client TEST!!\r\n",0
000a8c  73206c6f
000a90  6f706261
000a94  636b5f74
000a98  63702063
000a9c  6c69656e
000aa0  74205445
000aa4  53542121
000aa8  0d0a00  
000aab  00                DCB      0
                  |L1.2732|
                          DCD      ||area_number.12||+0xa
                  |L1.2736|
000ab0  25632069          DCB      "%c is ARP TEST!!\r\n",0
000ab4  73204152
000ab8  50205445
000abc  53542121
000ac0  0d0a00  
000ac3  00                DCB      0
                  |L1.2756|
                          DCD      ExitCris
                  |L1.2760|
                          DCD      EnterCris
                  |L1.2764|
                          DCD      0x60000300
                  |L1.2768|
                          DCD      0x60000200
                  |L1.2772|
000ad4  56455220          DCB      "VER : %x \r\n",0
000ad8  3a202578
000adc  200d0a00

                          AREA ||.bss||, DATA, NOINIT, ALIGN=0

                  Config_Msg
                          %        23

                          AREA ||area_number.4||, DATA, NOINIT, ALIGN=1

                          EXPORTAS ||area_number.4||, ||.bss||
                  Chconfig_Type_Def
                          %        22

                          AREA ||area_number.5||, DATA, NOINIT, ALIGN=0

                          EXPORTAS ||area_number.5||, ||.bss||
                  data_buf
                          %        2048

                          AREA ||.conststring||, DATA, READONLY, MERGE=1, STRINGS, ALIGN=2

000000  796f7572          DCB      "your Link Local IP is %.2x%.2x:%.2x%.2x:%.2x%.2x:%.2x%."
000004  204c696e
000008  6b204c6f
00000c  63616c20
000010  49502069
000014  7320252e
000018  3278252e
00001c  32783a25
000020  2e327825
000024  2e32783a
000028  252e3278
00002c  252e3278
000030  3a252e32
000034  78252e  
000037  32783a25          DCB      "2x:%.2x%.2x:%.2x%.2x:%.2x%.2x:%.2x%.2x \r\n",0
00003b  2e327825
00003f  2e32783a
000043  252e3278
000047  252e3278
00004b  3a252e32
00004f  78252e32
000053  783a252e
000057  3278252e
00005b  3278200d
00005f  0a00    
000061  00                DCB      0
000062  00                DCB      0
000063  00                DCB      0
000064  796f7572          DCB      "your Global IP is %.2x%.2x:%.2x%.2x:%.2x%.2x:%.2x%.2x:%"
000068  20476c6f
00006c  62616c20
000070  49502069
000074  7320252e
000078  3278252e
00007c  32783a25
000080  2e327825
000084  2e32783a
000088  252e3278
00008c  252e3278
000090  3a252e32
000094  78252e32
000098  783a25  
00009b  2e327825          DCB      ".2x%.2x:%.2x%.2x:%.2x%.2x:%.2x%.2x \r\n",0
00009f  2e32783a
0000a3  252e3278
0000a7  252e3278
0000ab  3a252e32
0000af  78252e32
0000b3  783a252e
0000b7  3278252e
0000bb  3278200d
0000bf  0a00    
0000c1  00                DCB      0
0000c2  00                DCB      0
0000c3  00                DCB      0
0000c4  796f7572          DCB      "your Subnet Mask is %.2x%.2x:%.2x%.2x:%.2x%.2x:%.2x%.2x"
0000c8  20537562
0000cc  6e657420
0000d0  4d61736b
0000d4  20697320
0000d8  252e3278
0000dc  252e3278
0000e0  3a252e32
0000e4  78252e32
0000e8  783a252e
0000ec  3278252e
0000f0  32783a25
0000f4  2e327825
0000f8  2e3278  
0000fb  3a252e32          DCB      ":%.2x%.2x:%.2x%.2x:%.2x%.2x:%.2x%.2x \r\n",0
0000ff  78252e32
000103  783a252e
000107  3278252e
00010b  32783a25
00010f  2e327825
000113  2e32783a
000117  252e3278
00011b  252e3278
00011f  200d0a00
000123  00                DCB      0
000124  796f7572          DCB      "your Gateway IP is %.2x%.2x:%.2x%.2x:%.2x%.2x:%.2x%.2x:"
000128  20476174
00012c  65776179
000130  20495020
000134  69732025
000138  2e327825
00013c  2e32783a
000140  252e3278
000144  252e3278
000148  3a252e32
00014c  78252e32
000150  783a252e
000154  3278252e
000158  32783a  
00015b  252e3278          DCB      "%.2x%.2x:%.2x%.2x:%.2x%.2x:%.2x%.2x \r\n",0
00015f  252e3278
000163  3a252e32
000167  78252e32
00016b  783a252e
00016f  3278252e
000173  32783a25
000177  2e327825
00017b  2e327820
00017f  0d0a00  
000182  00                DCB      0
000183  00                DCB      0
000184  796f7572          DCB      "your DNSv6 is %.2x%.2x:%.2x%.2x:%.2x%.2x:%.2x%.2x:%.2x%"
000188  20444e53
00018c  76362069
000190  7320252e
000194  3278252e
000198  32783a25
00019c  2e327825
0001a0  2e32783a
0001a4  252e3278
0001a8  252e3278
0001ac  3a252e32
0001b0  78252e32
0001b4  783a252e
0001b8  327825  
0001bb  2e32783a          DCB      ".2x:%.2x%.2x:%.2x%.2x:%.2x%.2x \r\n",0
0001bf  252e3278
0001c3  252e3278
0001c7  3a252e32
0001cb  78252e32
0001cf  783a252e
0001d3  3278252e
0001d7  3278200d
0001db  0a00    
0001dd  00                DCB      0
0001de  00                DCB      0
0001df  00                DCB      0
0001e0  796f7520          DCB      "you need get IP,DNS address. menu is number 4 stateful "
0001e4  6e656564
0001e8  20676574
0001ec  2049502c
0001f0  444e5320
0001f4  61646472
0001f8  6573732e
0001fc  206d656e
000200  75206973
000204  206e756d
000208  62657220
00020c  34207374
000210  61746566
000214  756c20  
000217  44484350          DCB      "DHCPv6 \r\n",0
00021b  7636200d
00021f  0a00    

                          AREA ||.data||, DATA, ALIGN=0

                  ch_status
000000  00000000          DCB      0x00,0x00,0x00,0x00
                          DCDU     0x00000000

                          AREA ||area_number.9||, DATA, ALIGN=0

                          EXPORTAS ||area_number.9||, ||.data||
                  txsize
000000  02020202          DCB      0x02,0x02,0x02,0x02
000004  02020202          DCB      0x02,0x02,0x02,0x02

                          AREA ||area_number.10||, DATA, ALIGN=0

                          EXPORTAS ||area_number.10||, ||.data||
                  rxsize
000000  02020202          DCB      0x02,0x02,0x02,0x02
000004  02020202          DCB      0x02,0x02,0x02,0x02

                          AREA ||area_number.11||, DATA, ALIGN=0

                          EXPORTAS ||area_number.11||, ||.data||
                  Enable_DHCP
000000  00                DCB      0x00

                          AREA ||area_number.12||, DATA, ALIGN=1

                          EXPORTAS ||area_number.12||, ||.data||
                  MO_flag
000000  0000              DCB      0x00,0x00
                  dest_Port
000002  1388              DCW      0x1388
                  WIZ_MAC
000004  0008dcfe          DCB      0x00,0x08,0xdc,0xfe
000008  5788              DCB      0x57,0x88
                  dest_GUA
00000a  2a01              DCB      0x2a,0x01
00000c  05c00018          DCB      0x05,0xc0,0x00,0x18
000010  81010208          DCB      0x81,0x01,0x02,0x08
000014  dcfffefe          DCB      0xdc,0xff,0xfe,0xfe
000018  5799              DCB      0x57,0x99
                  W6100_AdrSet
00001a  0202              DCB      0x02,0x02
00001c  02020202          DCB      0x02,0x02,0x02,0x02
000020  02020202          DCB      0x02,0x02,0x02,0x02
000024  02020202          DCB      0x02,0x02,0x02,0x02
000028  0202              DCB      0x02,0x02

                          AREA ||area_number.13||, DATA, ALIGN=0

                          EXPORTAS ||area_number.13||, ||.data||
                  WIZ_GA6
000000  200102b8          DCB      0x20,0x01,0x02,0xb8
000004  0010fffe          DCB      0x00,0x10,0xff,0xfe
000008  00000000          DCB      0x00,0x00,0x00,0x00
00000c  00000002          DCB      0x00,0x00,0x00,0x02

                          AREA ||area_number.14||, DATA, ALIGN=1

                          EXPORTAS ||area_number.14||, ||.data||
                  WIZ_Port
000000  1388              DCW      0x1388

                          AREA ||area_number.15||, DATA, ALIGN=2

                          EXPORTAS ||area_number.15||, ||.data||
                  presentTime
                          DCD      0x00000000

                          AREA ||area_number.16||, DATA, ALIGN=1

                          EXPORTAS ||area_number.16||, ||.data||
                  i
000000  0000              DCB      0x00,0x00

;*** Start embedded assembler ***

#line 1 "main.c"
	AREA ||.emb_text||, CODE
	THUMB
	EXPORT |__asm___6_main_c_9fb64f20____REV16|
#line 114 "..\\..\\Libraries\\CMSIS\\Include\\core_cmInstr.h"
|__asm___6_main_c_9fb64f20____REV16| PROC
#line 115

 rev16 r0, r0
 bx lr
	ENDP
	AREA ||.emb_text||, CODE
	THUMB
	EXPORT |__asm___6_main_c_9fb64f20____REVSH|
#line 128
|__asm___6_main_c_9fb64f20____REVSH| PROC
#line 129

 revsh r0, r0
 bx lr
	ENDP

;*** End   embedded assembler ***

                  __ARM_use_no_argv EQU 0
